target datalayout = "e-m:e-p270:32:32-p271:32:32-p272:64:64-i64:64-i128:128-f80:128-n8:16:32:64-S128"
target triple = "x86_64-pc-linux-gnu"

%"class.pstd::pmr::polymorphic_allocator.11" = type { ptr }
%"class.pbrt::FloatTexture" = type { %"class.pbrt::TaggedPointer.108" }
%"class.pbrt::TaggedPointer.108" = type { i64 }
%"class.pbrt::FloatConstantTexture" = type { float }

; Function Attrs: mustprogress uwtable
define linkonce_odr dso_local noundef ptr @_ZN4pstd3pmr15memory_resource8allocateEmm(ptr noundef nonnull align 8 dereferenceable(8) %0, i64 noundef %1, i64 noundef %2) #1 comdat align 2 {
  %4 = alloca ptr, align 8
  %5 = alloca ptr, align 8
  %6 = alloca i64, align 8
  %7 = alloca i64, align 8
  store ptr %0, ptr %5, align 8, !tbaa !30
  store i64 %1, ptr %6, align 8, !tbaa !77
  store i64 %2, ptr %7, align 8, !tbaa !77
  %8 = load ptr, ptr %5, align 8
  %9 = load i64, ptr %6, align 8, !tbaa !77
  %10 = icmp eq i64 %9, 0
  br i1 %10, label %11, label %12

11:                                               ; preds = %3
  store ptr null, ptr %4, align 8
  br label %19

12:                                               ; preds = %3
  %13 = load i64, ptr %6, align 8, !tbaa !77
  %14 = load i64, ptr %7, align 8, !tbaa !77
  %15 = load ptr, ptr %8, align 8, !tbaa !240
  %16 = getelementptr inbounds ptr, ptr %15, i64 2
  %17 = load ptr, ptr %16, align 8
  %18 = call noundef ptr %17(ptr noundef nonnull align 8 dereferenceable(8) %8, i64 noundef %13, i64 noundef %14)
  store ptr %18, ptr %4, align 8
  br label %19

19:                                               ; preds = %12, %11
  %20 = load ptr, ptr %4, align 8
  ret ptr %20
}

; Function Attrs: mustprogress nounwind uwtable
define linkonce_odr dso_local noundef ptr @_ZNK4pstd3pmr21polymorphic_allocatorISt4byteE8resourceEv(ptr noundef nonnull align 8 dereferenceable(8) %0) #3 comdat align 2 {
  %2 = alloca ptr, align 8
  store ptr %0, ptr %2, align 8, !tbaa !101
  %3 = load ptr, ptr %2, align 8
  %4 = getelementptr inbounds nuw %"class.pstd::pmr::polymorphic_allocator.11", ptr %3, i32 0, i32 0
  %5 = load ptr, ptr %4, align 8, !tbaa !593
  ret ptr %5
}

; Function Attrs: mustprogress nounwind uwtable
define linkonce_odr dso_local void @_ZN4pbrt20FloatConstantTextureC2Ef(ptr noundef nonnull align 4 dereferenceable(4) %0, float noundef %1) unnamed_addr #3 comdat align 2 {
  %3 = alloca ptr, align 8
  %4 = alloca float, align 4
  store ptr %0, ptr %3, align 8, !tbaa !224
  store float %1, ptr %4, align 4, !tbaa !9
  %5 = load ptr, ptr %3, align 8
  %6 = getelementptr inbounds nuw %"class.pbrt::FloatConstantTexture", ptr %5, i32 0, i32 0
  %7 = load float, ptr %4, align 4, !tbaa !9
  store float %7, ptr %6, align 4, !tbaa !713
  ret void
}

; Function Attrs: mustprogress uwtable
define linkonce_odr dso_local noundef ptr @_ZN4pstd3pmr21polymorphic_allocatorISt4byteE14allocate_bytesEmm(ptr noundef nonnull align 8 dereferenceable(8) %0, i64 noundef %1, i64 noundef %2) #1 comdat align 2 {
  %4 = alloca ptr, align 8
  %5 = alloca i64, align 8
  %6 = alloca i64, align 8
  store ptr %0, ptr %4, align 8, !tbaa !101
  store i64 %1, ptr %5, align 8, !tbaa !77
  store i64 %2, ptr %6, align 8, !tbaa !77
  %7 = load ptr, ptr %4, align 8
  %8 = call noundef ptr @_ZNK4pstd3pmr21polymorphic_allocatorISt4byteE8resourceEv(ptr noundef nonnull align 8 dereferenceable(8) %7)
  %9 = load i64, ptr %5, align 8, !tbaa !77
  %10 = load i64, ptr %6, align 8, !tbaa !77
  %11 = call noundef ptr @_ZN4pstd3pmr15memory_resource8allocateEmm(ptr noundef nonnull align 8 dereferenceable(8) %8, i64 noundef %9, i64 noundef %10)
  ret ptr %11
}

; Function Attrs: mustprogress nounwind uwtable
define linkonce_odr dso_local void @_ZN4pbrt13TaggedPointerIJNS_17FloatImageTextureENS_20GPUFloatImageTextureENS_15FloatMixTextureENS_24FloatDirectionMixTextureENS_18FloatScaledTextureENS_20FloatConstantTextureENS_18FloatBilerpTextureENS_24FloatCheckerboardTextureENS_16FloatDotsTextureENS_10FBmTextureENS_16FloatPtexTextureENS_19GPUFloatPtexTextureENS_12WindyTextureENS_15WrinkledTextureEEEC2IS6_EEPT_(ptr noundef nonnull align 8 dereferenceable(8) %0, ptr noundef %1) unnamed_addr #3 comdat align 2 {
  %3 = alloca ptr, align 8
  %4 = alloca ptr, align 8
  %5 = alloca i64, align 8
  %6 = alloca i32, align 4
  store ptr %0, ptr %3, align 8, !tbaa !218
  store ptr %1, ptr %4, align 8, !tbaa !224
  %7 = load ptr, ptr %3, align 8
  %8 = getelementptr inbounds nuw %"class.pbrt::TaggedPointer.108", ptr %7, i32 0, i32 0
  store i64 0, ptr %8, align 8, !tbaa !220
  call void @llvm.lifetime.start.p0(i64 8, ptr %5) #10
  %9 = load ptr, ptr %4, align 8, !tbaa !224
  %10 = ptrtoint ptr %9 to i64
  store i64 %10, ptr %5, align 8, !tbaa !77
  br label %11

11:                                               ; preds = %2
  br label %12

12:                                               ; preds = %11
  br label %13

13:                                               ; preds = %12
  call void @llvm.lifetime.start.p0(i64 4, ptr %6) #10
  store i32 6, ptr %6, align 4, !tbaa !34
  %14 = load i64, ptr %5, align 8, !tbaa !77
  %15 = or i64 %14, 864691128455135232
  %16 = getelementptr inbounds nuw %"class.pbrt::TaggedPointer.108", ptr %7, i32 0, i32 0
  store i64 %15, ptr %16, align 8, !tbaa !220
  call void @llvm.lifetime.end.p0(i64 4, ptr %6) #10
  call void @llvm.lifetime.end.p0(i64 8, ptr %5) #10
  ret void
}

; Function Attrs: mustprogress uwtable
define linkonce_odr dso_local void @_ZN4pstd3pmr21polymorphic_allocatorISt4byteE9constructIN4pbrt20FloatConstantTextureEJRfEEEvPT_DpOT0_(ptr noundef nonnull align 8 dereferenceable(8) %0, ptr noundef %1, ptr noundef nonnull align 4 dereferenceable(4) %2) #1 comdat align 2 {
  %4 = alloca ptr, align 8
  %5 = alloca ptr, align 8
  %6 = alloca ptr, align 8
  store ptr %0, ptr %4, align 8, !tbaa !101
  store ptr %1, ptr %5, align 8, !tbaa !224
  store ptr %2, ptr %6, align 8, !tbaa !173
  %7 = load ptr, ptr %5, align 8, !tbaa !224
  %8 = load ptr, ptr %6, align 8, !tbaa !173
  %9 = load float, ptr %8, align 4, !tbaa !9
  call void @_ZN4pbrt20FloatConstantTextureC2Ef(ptr noundef nonnull align 4 dereferenceable(4) %7, float noundef %9)
  ret void
}

; Function Attrs: mustprogress uwtable
define linkonce_odr dso_local noundef ptr @_ZN4pstd3pmr21polymorphic_allocatorISt4byteE15allocate_objectIN4pbrt20FloatConstantTextureEEEPT_m(ptr noundef nonnull align 8 dereferenceable(8) %0, i64 noundef %1) #1 comdat align 2 {
  %3 = alloca ptr, align 8
  %4 = alloca i64, align 8
  store ptr %0, ptr %3, align 8, !tbaa !101
  store i64 %1, ptr %4, align 8, !tbaa !77
  %5 = load ptr, ptr %3, align 8
  %6 = load i64, ptr %4, align 8, !tbaa !77
  %7 = mul i64 %6, 4
  %8 = call noundef ptr @_ZN4pstd3pmr21polymorphic_allocatorISt4byteE14allocate_bytesEmm(ptr noundef nonnull align 8 dereferenceable(8) %5, i64 noundef %7, i64 noundef 4)
  ret ptr %8
}

; Function Attrs: mustprogress nounwind uwtable
define linkonce_odr dso_local void @_ZN4pbrt13TaggedPointerIJNS_17FloatImageTextureENS_20GPUFloatImageTextureENS_15FloatMixTextureENS_24FloatDirectionMixTextureENS_18FloatScaledTextureENS_20FloatConstantTextureENS_18FloatBilerpTextureENS_24FloatCheckerboardTextureENS_16FloatDotsTextureENS_10FBmTextureENS_16FloatPtexTextureENS_19GPUFloatPtexTextureENS_12WindyTextureENS_15WrinkledTextureEEEC2ERKSF_(ptr noundef nonnull align 8 dereferenceable(8) %0, ptr noundef nonnull align 8 dereferenceable(8) %1) unnamed_addr #3 comdat align 2 {
  %3 = alloca ptr, align 8
  %4 = alloca ptr, align 8
  store ptr %0, ptr %3, align 8, !tbaa !218
  store ptr %1, ptr %4, align 8, !tbaa !218
  %5 = load ptr, ptr %3, align 8
  %6 = getelementptr inbounds nuw %"class.pbrt::TaggedPointer.108", ptr %5, i32 0, i32 0
  store i64 0, ptr %6, align 8, !tbaa !220
  %7 = load ptr, ptr %4, align 8, !tbaa !218
  %8 = getelementptr inbounds nuw %"class.pbrt::TaggedPointer.108", ptr %7, i32 0, i32 0
  %9 = load i64, ptr %8, align 8, !tbaa !220
  %10 = getelementptr inbounds nuw %"class.pbrt::TaggedPointer.108", ptr %5, i32 0, i32 0
  store i64 %9, ptr %10, align 8, !tbaa !220
  ret void
}

; Function Attrs: inlinehint mustprogress uwtable
define linkonce_odr dso_local void @_ZN4pbrt12FloatTextureCI2NS_13TaggedPointerIJNS_17FloatImageTextureENS_20GPUFloatImageTextureENS_15FloatMixTextureENS_24FloatDirectionMixTextureENS_18FloatScaledTextureENS_20FloatConstantTextureENS_18FloatBilerpTextureENS_24FloatCheckerboardTextureENS_16FloatDotsTextureENS_10FBmTextureENS_16FloatPtexTextureENS_19GPUFloatPtexTextureENS_12WindyTextureENS_15WrinkledTextureEEEEIS7_EEPT_(ptr noundef nonnull align 8 dereferenceable(8) %0, ptr noundef %1) unnamed_addr #4 comdat align 2 {
  %3 = alloca ptr, align 8
  %4 = alloca ptr, align 8
  store ptr %0, ptr %3, align 8, !tbaa !222
  store ptr %1, ptr %4, align 8, !tbaa !224
  %5 = load ptr, ptr %3, align 8
  %6 = load ptr, ptr %4, align 8, !tbaa !224
  call void @_ZN4pbrt13TaggedPointerIJNS_17FloatImageTextureENS_20GPUFloatImageTextureENS_15FloatMixTextureENS_24FloatDirectionMixTextureENS_18FloatScaledTextureENS_20FloatConstantTextureENS_18FloatBilerpTextureENS_24FloatCheckerboardTextureENS_16FloatDotsTextureENS_10FBmTextureENS_16FloatPtexTextureENS_19GPUFloatPtexTextureENS_12WindyTextureENS_15WrinkledTextureEEEC2IS6_EEPT_(ptr noundef nonnull align 8 dereferenceable(8) %5, ptr noundef %6)
  ret void
}

; Function Attrs: mustprogress uwtable
define linkonce_odr dso_local noundef ptr @_ZN4pstd3pmr21polymorphic_allocatorISt4byteE10new_objectIN4pbrt20FloatConstantTextureEJRfEEEPT_DpOT0_(ptr noundef nonnull align 8 dereferenceable(8) %0, ptr noundef nonnull align 4 dereferenceable(4) %1) #1 comdat align 2 {
  %3 = alloca ptr, align 8
  %4 = alloca ptr, align 8
  %5 = alloca ptr, align 8
  store ptr %0, ptr %3, align 8, !tbaa !101
  store ptr %1, ptr %4, align 8, !tbaa !173
  %6 = load ptr, ptr %3, align 8
  call void @llvm.lifetime.start.p0(i64 8, ptr %5) #10
  %7 = call noundef ptr @_ZN4pstd3pmr21polymorphic_allocatorISt4byteE15allocate_objectIN4pbrt20FloatConstantTextureEEEPT_m(ptr noundef nonnull align 8 dereferenceable(8) %6, i64 noundef 1)
  store ptr %7, ptr %5, align 8, !tbaa !224
  %8 = load ptr, ptr %5, align 8, !tbaa !224
  %9 = load ptr, ptr %4, align 8, !tbaa !173
  call void @_ZN4pstd3pmr21polymorphic_allocatorISt4byteE9constructIN4pbrt20FloatConstantTextureEJRfEEEvPT_DpOT0_(ptr noundef nonnull align 8 dereferenceable(8) %6, ptr noundef %8, ptr noundef nonnull align 4 dereferenceable(4) %9)
  %10 = load ptr, ptr %5, align 8, !tbaa !224
  call void @llvm.lifetime.end.p0(i64 8, ptr %5) #10
  ret ptr %10
}

; Function Attrs: inlinehint mustprogress uwtable
define linkonce_odr dso_local void @_ZN4pbrt12FloatTextureC2ERKS0_(ptr noundef nonnull align 8 dereferenceable(8) %0, ptr noundef nonnull align 8 dereferenceable(8) %1) unnamed_addr #4 comdat align 2 {
  %3 = alloca ptr, align 8
  %4 = alloca ptr, align 8
  store ptr %0, ptr %3, align 8, !tbaa !222
  store ptr %1, ptr %4, align 8, !tbaa !222
  %5 = load ptr, ptr %3, align 8
  %6 = load ptr, ptr %4, align 8, !tbaa !222
  call void @_ZN4pbrt13TaggedPointerIJNS_17FloatImageTextureENS_20GPUFloatImageTextureENS_15FloatMixTextureENS_24FloatDirectionMixTextureENS_18FloatScaledTextureENS_20FloatConstantTextureENS_18FloatBilerpTextureENS_24FloatCheckerboardTextureENS_16FloatDotsTextureENS_10FBmTextureENS_16FloatPtexTextureENS_19GPUFloatPtexTextureENS_12WindyTextureENS_15WrinkledTextureEEEC2ERKSF_(ptr noundef nonnull align 8 dereferenceable(8) %5, ptr noundef nonnull align 8 dereferenceable(8) %6)
  ret void
}

; Function Attrs: mustprogress nounwind uwtable
define linkonce_odr dso_local noundef zeroext i1 @_ZNK4pbrt13TaggedPointerIJNS_17FloatImageTextureENS_20GPUFloatImageTextureENS_15FloatMixTextureENS_24FloatDirectionMixTextureENS_18FloatScaledTextureENS_20FloatConstantTextureENS_18FloatBilerpTextureENS_24FloatCheckerboardTextureENS_16FloatDotsTextureENS_10FBmTextureENS_16FloatPtexTextureENS_19GPUFloatPtexTextureENS_12WindyTextureENS_15WrinkledTextureEEEcvbEv(ptr noundef nonnull align 8 dereferenceable(8) %0) #3 comdat align 2 {
  %2 = alloca ptr, align 8
  store ptr %0, ptr %2, align 8, !tbaa !218
  %3 = load ptr, ptr %2, align 8
  %4 = getelementptr inbounds nuw %"class.pbrt::TaggedPointer.108", ptr %3, i32 0, i32 0
  %5 = load i64, ptr %4, align 8, !tbaa !220
  %6 = and i64 %5, 144115188075855871
  %7 = icmp ne i64 %6, 0
  ret i1 %7
}

; Function Attrs: mustprogress uwtable
define dso_local void @_ZNK4pbrt26TextureParameterDictionary15GetFloatTextureERKNSt7__cxx1112basic_stringIcSt11char_traitsIcESaIcEEEfN4pstd3pmr21polymorphic_allocatorISt4byteEE(ptr dead_on_unwind noalias writable sret(%"class.pbrt::FloatTexture") align 8 %0, ptr noundef nonnull align 8 dereferenceable(16) %1, ptr noundef nonnull align 8 dereferenceable(32) %2, float noundef %3, ptr %4) #1 align 2 {
  %6 = alloca ptr, align 8
  %7 = alloca %"class.pstd::pmr::polymorphic_allocator.11", align 8
  %8 = alloca ptr, align 8
  %9 = alloca ptr, align 8
  %10 = alloca float, align 4
  %11 = alloca %"class.pbrt::FloatTexture", align 8
  %12 = alloca %"class.pstd::pmr::polymorphic_allocator.11", align 8
  store ptr %0, ptr %6, align 8
  %13 = getelementptr inbounds nuw %"class.pstd::pmr::polymorphic_allocator.11", ptr %7, i32 0, i32 0
  store ptr %4, ptr %13, align 8
  store ptr %1, ptr %8, align 8, !tbaa !185
  store ptr %2, ptr %9, align 8, !tbaa !47
  store float %3, ptr %10, align 4, !tbaa !9
  %14 = load ptr, ptr %8, align 8
  call void @llvm.lifetime.start.p0(i64 8, ptr %11) #10
  %15 = load ptr, ptr %9, align 8, !tbaa !47
  call void @llvm.memcpy.p0.p0.i64(ptr align 8 %12, ptr align 8 %7, i64 8, i1 false), !tbaa.struct !29
  %16 = getelementptr inbounds nuw %"class.pstd::pmr::polymorphic_allocator.11", ptr %12, i32 0, i32 0
  %17 = load ptr, ptr %16, align 8
  call void @_ZNK4pbrt26TextureParameterDictionary21GetFloatTextureOrNullERKNSt7__cxx1112basic_stringIcSt11char_traitsIcESaIcEEEN4pstd3pmr21polymorphic_allocatorISt4byteEE(ptr dead_on_unwind writable sret(%"class.pbrt::FloatTexture") align 8 %11, ptr noundef nonnull align 8 dereferenceable(16) %14, ptr noundef nonnull align 8 dereferenceable(32) %15, ptr %17)
  %18 = call noundef zeroext i1 @_ZNK4pbrt13TaggedPointerIJNS_17FloatImageTextureENS_20GPUFloatImageTextureENS_15FloatMixTextureENS_24FloatDirectionMixTextureENS_18FloatScaledTextureENS_20FloatConstantTextureENS_18FloatBilerpTextureENS_24FloatCheckerboardTextureENS_16FloatDotsTextureENS_10FBmTextureENS_16FloatPtexTextureENS_19GPUFloatPtexTextureENS_12WindyTextureENS_15WrinkledTextureEEEcvbEv(ptr noundef nonnull align 8 dereferenceable(8) %11)
  br i1 %18, label %19, label %20

19:                                               ; preds = %5
  call void @_ZN4pbrt12FloatTextureC2ERKS0_(ptr noundef nonnull align 8 dereferenceable(8) %0, ptr noundef nonnull align 8 dereferenceable(8) %11)
  br label %22

20:                                               ; preds = %5
  %21 = call noundef ptr @_ZN4pstd3pmr21polymorphic_allocatorISt4byteE10new_objectIN4pbrt20FloatConstantTextureEJRfEEEPT_DpOT0_(ptr noundef nonnull align 8 dereferenceable(8) %7, ptr noundef nonnull align 4 dereferenceable(4) %10)
  call void @_ZN4pbrt12FloatTextureCI2NS_13TaggedPointerIJNS_17FloatImageTextureENS_20GPUFloatImageTextureENS_15FloatMixTextureENS_24FloatDirectionMixTextureENS_18FloatScaledTextureENS_20FloatConstantTextureENS_18FloatBilerpTextureENS_24FloatCheckerboardTextureENS_16FloatDotsTextureENS_10FBmTextureENS_16FloatPtexTextureENS_19GPUFloatPtexTextureENS_12WindyTextureENS_15WrinkledTextureEEEEIS7_EEPT_(ptr noundef nonnull align 8 dereferenceable(8) %0, ptr noundef %21)
  br label %22

22:                                               ; preds = %20, %19
  call void @llvm.lifetime.end.p0(i64 8, ptr %11) #10
  ret void
}