; Function Attrs: mustprogress uwtable
define dso_local void @_ZNK4pbrt26TextureParameterDictionary15GetFloatTextureERKNSt7__cxx1112basic_stringIcSt11char_traitsIcESaIcEEEfN4pstd3pmr21polymorphic_allocatorISt4byteEE(ptr dead_on_unwind noalias writable writeonly sret(%"class.pbrt::FloatTexture") align 8 captures(none) initializes((0, 8)) %0, ptr noundef nonnull readonly align 8 captures(none) dereferenceable(16) %1, ptr noundef nonnull align 8 dereferenceable(32) %2, float noundef %3, ptr %4) local_unnamed_addr #1 align 2 {
  %6 = alloca %"class.pbrt::FloatTexture", align 8
  call void @llvm.lifetime.start.p0(i64 8, ptr nonnull %6) #29
  call void @_ZNK4pbrt26TextureParameterDictionary21GetFloatTextureOrNullERKNSt7__cxx1112basic_stringIcSt11char_traitsIcESaIcEEEN4pstd3pmr21polymorphic_allocatorISt4byteEE(ptr dead_on_unwind nonnull writable sret(%"class.pbrt::FloatTexture") align 8 %6, ptr noundef nonnull align 8 dereferenceable(16) %1, ptr noundef nonnull align 8 dereferenceable(32) %2, ptr %4)
  %7 = load i64, ptr %6, align 8, !tbaa !353
  %8 = and i64 %7, 144115188075855871
  %.not = icmp eq i64 %8, 0
  br i1 %.not, label %9, label %16

9:                                                ; preds = %5
  %10 = load ptr, ptr %4, align 8, !tbaa !53
  %11 = getelementptr inbounds nuw i8, ptr %10, i64 16
  %12 = load ptr, ptr %11, align 8
  %13 = tail call noundef ptr %12(ptr noundef nonnull align 8 dereferenceable(8) %4, i64 noundef 4, i64 noundef 4)
  store float %3, ptr %13, align 4, !tbaa !355
  %14 = ptrtoint ptr %13 to i64
  %15 = or i64 %14, 864691128455135232
  br label %16

16:                                               ; preds = %5, %9
  %storemerge = phi i64 [ %15, %9 ], [ %7, %5 ]
  store i64 %storemerge, ptr %0, align 8, !tbaa !353
  call void @llvm.lifetime.end.p0(i64 8, ptr nonnull %6) #29
  ret void
}